target datalayout = "e-m:e-p270:32:32-p271:32:32-p272:64:64-i64:64-i128:128-f80:128-n8:16:32:64-S128"
target triple = "x86_64-pc-linux-gnu"

%struct._zend_accel_globals = type { i8, i8, i8, i8, i8, %struct._zend_accel_directives, ptr, ptr, [32 x i8], [32 x i8], i32, i8, i32, i8, i32, i64, i64, %struct._zend_array, i64, ptr, ptr, ptr, ptr, %struct._zend_string, [32768 x i8] }
%struct._zend_accel_directives = type { i64, i64, double, ptr, i64, i8, i8, i8, i8, i8, i8, i8, i8, i8, i8, i8, i64, i64, ptr, ptr, i64, i64, i64, i64, i64, ptr, ptr, ptr, i8, i8, i8, ptr, ptr }
%struct._zend_array = type { %struct._zend_refcounted_h, %union.anon.0, i32, %union.anon.1, i32, i32, i32, i32, i64, ptr }
%struct._zend_refcounted_h = type { i32, %union.anon }
%union.anon = type { i32 }
%union.anon.0 = type { i32 }
%union.anon.1 = type { ptr }
%struct._zend_string = type { %struct._zend_refcounted_h, i64, i64, [1 x i8] }
%struct._zend_llist = type { ptr, ptr, i64, i64, ptr, i8, ptr }
%struct._zend_stack = type { i32, i32, i32, ptr }
%struct._zend_executor_globals = type { %struct._zval_struct, %struct._zval_struct, [32 x ptr], ptr, ptr, %struct._zend_array, %struct._zend_array, ptr, i32, i32, ptr, ptr, ptr, ptr, ptr, ptr, i64, ptr, ptr, i32, i32, i64, i32, i32, i32, i8, i8, %struct.zend_atomic_bool_s, %struct.zend_atomic_bool_s, ptr, i64, ptr, ptr, %struct._zend_array, %struct._zend_array, i32, i8, %struct._zval_struct, %struct._zval_struct, %struct._zend_stack, %struct._zend_stack, %struct._zend_stack, ptr, i32, i32, i64, ptr, ptr, ptr, %struct._zend_objects_store, ptr, ptr, ptr, [3 x %struct._zend_op], ptr, i8, i8, i64, i32, i32, ptr, [16 x %struct._HashTableIterator], ptr, %union._zend_function, %struct._zend_op, %struct._zend_array, i64, %struct.zend_get_gc_buffer, ptr, ptr, ptr, i64, i8, i32, ptr, ptr, i64, %struct._zend_call_stack, i64, i64, [6 x ptr] }
%struct.zend_atomic_bool_s = type { i8 }
%struct._zval_struct = type { %union._zend_value, %union.anon.4, %union.anon.7 }
%union._zend_value = type { i64 }
%union.anon.4 = type { i32 }
%union.anon.7 = type { i32 }
%struct._zend_objects_store = type { ptr, i32, i32, i32 }
%struct._HashTableIterator = type { ptr, i32, i32 }
%union._zend_function = type { %struct._zend_op_array }
%struct._zend_op_array = type { i8, [3 x i8], i32, ptr, ptr, ptr, i32, i32, ptr, ptr, ptr, ptr, i32, i32, i32, i32, ptr, ptr, ptr, ptr, ptr, i32, i32, ptr, ptr, ptr, i32, i32, i32, i32, ptr, ptr, [6 x ptr] }
%struct._zend_op = type { ptr, %union._znode_op, %union._znode_op, %union._znode_op, i32, i32, i8, i8, i8, i8 }
%union._znode_op = type { i32 }
%struct.zend_get_gc_buffer = type { ptr, ptr, ptr }
%struct._zend_call_stack = type { ptr, i64 }
%struct._sapi_globals_struct = type { ptr, %struct.sapi_request_info, %struct.sapi_headers_struct, i64, i8, i8, %struct.stat, ptr, ptr, ptr, i64, i32, i8, double, %struct._zend_array, %struct._zval_struct, %struct._zend_fcall_info_cache, %struct.sapi_request_parse_body_context }
%struct.sapi_request_info = type { ptr, ptr, ptr, i64, ptr, ptr, ptr, ptr, i8, i8, i8, ptr, ptr, ptr, ptr, ptr, ptr, ptr, i32, i32, ptr, i32 }
%struct.sapi_headers_struct = type { %struct._zend_llist, i32, i8, ptr, ptr }
%struct.stat = type { i64, i64, i64, i32, i32, i32, i32, i64, i64, i64, i64, %struct.timespec, %struct.timespec, %struct.timespec, [3 x i64] }
%struct.timespec = type { i64, i64 }
%struct._zend_fcall_info_cache = type { ptr, ptr, ptr, ptr, ptr }
%struct.sapi_request_parse_body_context = type { i8, [5 x %struct.anon.15] }
%struct.anon.15 = type { i8, i64 }
%struct._zend_execute_data = type { ptr, ptr, ptr, ptr, %struct._zval_struct, ptr, ptr, ptr, ptr }

@accel_globals = external global %struct._zend_accel_globals, align 8
@executor_globals = external global %struct._zend_executor_globals, align 8
@.str.134 = private unnamed_addr constant [4 x i8] c"S|b\00", align 1
@sapi_globals = external global %struct._sapi_globals_struct, align 8
@.str.180 = private unnamed_addr constant [73 x i8] c"Zend OPcache API is restricted by \22restrict_api\22 configuration directive\00", align 1

; Function Attrs: nounwind uwtable
define internal i32 @validate_api_restriction() #0 {
  %1 = alloca i32, align 4
  %2 = alloca i64, align 8
  %3 = load ptr, ptr getelementptr inbounds (%struct._zend_accel_globals, ptr @accel_globals, i32 0, i32 5, i32 25), align 8
  %4 = icmp ne ptr %3, null
  br i1 %4, label %5, label %28

5:                                                ; preds = %0
  %6 = load ptr, ptr getelementptr inbounds (%struct._zend_accel_globals, ptr @accel_globals, i32 0, i32 5, i32 25), align 8
  %7 = load i8, ptr %6, align 1
  %8 = sext i8 %7 to i32
  %9 = icmp ne i32 %8, 0
  br i1 %9, label %10, label %28

10:                                               ; preds = %5
  %11 = load ptr, ptr getelementptr inbounds (%struct._zend_accel_globals, ptr @accel_globals, i32 0, i32 5, i32 25), align 8
  %12 = call i64 @strlen(ptr noundef %11) #11
  store i64 %12, ptr %2, align 8
  %13 = load ptr, ptr getelementptr inbounds (%struct._sapi_globals_struct, ptr @sapi_globals, i32 0, i32 1, i32 4), align 8
  %14 = icmp ne ptr %13, null
  br i1 %14, label %15, label %26

15:                                               ; preds = %10
  %16 = load ptr, ptr getelementptr inbounds (%struct._sapi_globals_struct, ptr @sapi_globals, i32 0, i32 1, i32 4), align 8
  %17 = call i64 @strlen(ptr noundef %16) #11
  %18 = load i64, ptr %2, align 8
  %19 = icmp ult i64 %17, %18
  br i1 %19, label %26, label %20

20:                                               ; preds = %15
  %21 = load ptr, ptr getelementptr inbounds (%struct._sapi_globals_struct, ptr @sapi_globals, i32 0, i32 1, i32 4), align 8
  %22 = load ptr, ptr getelementptr inbounds (%struct._zend_accel_globals, ptr @accel_globals, i32 0, i32 5, i32 25), align 8
  %23 = load i64, ptr %2, align 8
  %24 = call i32 @memcmp(ptr noundef %21, ptr noundef %22, i64 noundef %23) #11
  %25 = icmp ne i32 %24, 0
  br i1 %25, label %26, label %27

26:                                               ; preds = %20, %15, %10
  call void (i32, ptr, ...) @zend_error(i32 noundef 2, ptr noundef @.str.180)
  store i32 0, ptr %1, align 4
  br label %29

27:                                               ; preds = %20
  br label %28

28:                                               ; preds = %27, %5, %0
  store i32 1, ptr %1, align 4
  br label %29

29:                                               ; preds = %28, %26
  %30 = load i32, ptr %1, align 4
  ret i32 %30
}

; Function Attrs: nounwind uwtable
define hidden void @zif_opcache_invalidate(ptr noundef %0, ptr noundef %1) #0 {
  %3 = alloca ptr, align 8
  %4 = alloca ptr, align 8
  %5 = alloca ptr, align 8
  %6 = alloca i8, align 1
  store ptr %0, ptr %3, align 8
  store ptr %1, ptr %4, align 8
  store i8 0, ptr %6, align 1
  %7 = load ptr, ptr %3, align 8
  %8 = getelementptr inbounds %struct._zend_execute_data, ptr %7, i32 0, i32 4
  %9 = getelementptr inbounds %struct._zval_struct, ptr %8, i32 0, i32 2
  %10 = load i32, ptr %9, align 4
  %11 = call i32 (i32, ptr, ...) @zend_parse_parameters(i32 noundef %10, ptr noundef @.str.134, ptr noundef %5, ptr noundef %6)
  %12 = icmp eq i32 %11, -1
  br i1 %12, label %13, label %18

13:                                               ; preds = %2
  br label %14

14:                                               ; preds = %13
  %15 = load ptr, ptr getelementptr inbounds (%struct._zend_executor_globals, ptr @executor_globals, i32 0, i32 50), align 8
  %16 = icmp ne ptr %15, null
  call void @llvm.assume(i1 %16)
  br label %48

17:                                               ; No predecessors!
  br label %18

18:                                               ; preds = %17, %2
  %19 = call i32 @validate_api_restriction()
  %20 = icmp ne i32 %19, 0
  br i1 %20, label %28, label %21

21:                                               ; preds = %18
  br label %22

22:                                               ; preds = %21
  br label %23

23:                                               ; preds = %22
  %24 = load ptr, ptr %4, align 8
  %25 = getelementptr inbounds %struct._zval_struct, ptr %24, i32 0, i32 1
  store i32 2, ptr %25, align 8
  br label %26

26:                                               ; preds = %23
  br label %48

27:                                               ; No predecessors!
  br label %28

28:                                               ; preds = %27, %18
  %29 = load ptr, ptr %5, align 8
  %30 = load i8, ptr %6, align 1
  %31 = trunc i8 %30 to i1
  %32 = call i32 @zend_accel_invalidate(ptr noundef %29, i1 noundef zeroext %31)
  %33 = icmp eq i32 %32, 0
  br i1 %33, label %34, label %41

34:                                               ; preds = %28
  br label %35

35:                                               ; preds = %34
  br label %36

36:                                               ; preds = %35
  %37 = load ptr, ptr %4, align 8
  %38 = getelementptr inbounds %struct._zval_struct, ptr %37, i32 0, i32 1
  store i32 3, ptr %38, align 8
  br label %39

39:                                               ; preds = %36
  br label %48

40:                                               ; No predecessors!
  br label %48

41:                                               ; preds = %28
  br label %42

42:                                               ; preds = %41
  br label %43

43:                                               ; preds = %42
  %44 = load ptr, ptr %4, align 8
  %45 = getelementptr inbounds %struct._zval_struct, ptr %44, i32 0, i32 1
  store i32 2, ptr %45, align 8
  br label %46

46:                                               ; preds = %43
  br label %48

47:                                               ; No predecessors!
  br label %48

48:                                               ; preds = %47, %46, %40, %39, %26, %14
  ret void
}