; Function Attrs: nounwind uwtable
define hidden void @zif_opcache_invalidate(ptr nocapture noundef readonly %0, ptr nocapture noundef writeonly %1) #0 {
  %3 = alloca ptr, align 8
  %4 = alloca i8, align 1
  store i8 0, ptr %4, align 1
  %5 = getelementptr inbounds i8, ptr %0, i64 44
  %6 = load i32, ptr %5, align 4
  %7 = call i32 (i32, ptr, ...) @zend_parse_parameters(i32 noundef %6, ptr noundef nonnull @.str.134, ptr noundef nonnull %3, ptr noundef nonnull %4) #14
  %8 = icmp eq i32 %7, -1
  br i1 %8, label %9, label %12

9:                                                ; preds = %2
  %10 = load ptr, ptr getelementptr inbounds (%struct._zend_executor_globals, ptr @executor_globals, i64 0, i32 50), align 8
  %11 = icmp ne ptr %10, null
  call void @llvm.assume(i1 %11)
  br label %35

12:                                               ; preds = %2
  %13 = load ptr, ptr getelementptr inbounds (%struct._zend_accel_globals, ptr @accel_globals, i64 0, i32 5, i32 25), align 8
  %.not.i = icmp eq ptr %13, null
  br i1 %.not.i, label %25, label %14

14:                                               ; preds = %12
  %15 = load i8, ptr %13, align 1
  %.not6.i = icmp eq i8 %15, 0
  br i1 %.not6.i, label %25, label %16

16:                                               ; preds = %14
  %17 = call i64 @strlen(ptr noundef nonnull dereferenceable(1) %13) #15
  %18 = load ptr, ptr getelementptr inbounds (%struct._sapi_globals_struct, ptr @sapi_globals, i64 0, i32 1, i32 4), align 8
  %.not7.i = icmp eq ptr %18, null
  br i1 %.not7.i, label %23, label %19

19:                                               ; preds = %16
  %20 = call i64 @strlen(ptr noundef nonnull dereferenceable(1) %18) #15
  %21 = icmp ult i64 %20, %17
  br i1 %21, label %23, label %22

22:                                               ; preds = %19
  %bcmp.i = call i32 @bcmp(ptr nonnull %18, ptr nonnull %13, i64 %17)
  %.not8.i = icmp eq i32 %bcmp.i, 0
  br i1 %.not8.i, label %25, label %23

23:                                               ; preds = %22, %19, %16
  call void (i32, ptr, ...) @zend_error(i32 noundef 2, ptr noundef nonnull @.str.180) #14
  %24 = getelementptr inbounds i8, ptr %1, i64 8
  store i32 2, ptr %24, align 8
  br label %35

25:                                               ; preds = %22, %14, %12
  %26 = load ptr, ptr %3, align 8
  %27 = load i8, ptr %4, align 1
  %28 = and i8 %27, 1
  %29 = icmp ne i8 %28, 0
  %30 = call i32 @zend_accel_invalidate(ptr noundef %26, i1 noundef zeroext %29) #14
  %31 = icmp eq i32 %30, 0
  %32 = getelementptr inbounds i8, ptr %1, i64 8
  br i1 %31, label %33, label %34

33:                                               ; preds = %25
  store i32 3, ptr %32, align 8
  br label %35

34:                                               ; preds = %25
  store i32 2, ptr %32, align 8
  br label %35

35:                                               ; preds = %34, %33, %23, %9
  ret void
}